; Function Attrs: mustprogress uwtable
define hidden void @_ZN3seq6skolem8mk_firstEP4expr(ptr dead_on_unwind noalias writable sret(%class.obj_ref) align 8 %0, ptr noundef nonnull align 8 dereferenceable(336) %1, ptr noundef %2) local_unnamed_addr #3 align 2 personality ptr @__gxx_personality_v0 {
  %4 = alloca [4 x ptr], align 16
  %5 = alloca %class.zstring, align 8
  %6 = alloca %class.zstring, align 8
  call void @llvm.lifetime.start.p0(i64 80, ptr nonnull %5) #20
  %7 = getelementptr inbounds nuw i8, ptr %5, i64 16
  store ptr %7, ptr %5, align 8, !tbaa !161
  %8 = getelementptr inbounds nuw i8, ptr %5, i64 8
  store i32 0, ptr %8, align 8, !tbaa !163
  %9 = getelementptr inbounds nuw i8, ptr %5, i64 12
  store i32 16, ptr %9, align 4, !tbaa !164
  %10 = getelementptr inbounds nuw i8, ptr %1, i64 48
  %11 = invoke noundef zeroext i1 @_ZNK8seq_util3str9is_stringEPK4exprR7zstring(ptr noundef nonnull align 8 dereferenceable(20) %10, ptr noundef %2, ptr noundef nonnull align 8 dereferenceable(80) %5)
          to label %12 unwind label %32

12:                                               ; preds = %3
  br i1 %11, label %13, label %39

13:                                               ; preds = %12
  %14 = load i32, ptr %8, align 8, !tbaa !163
  %.not = icmp eq i32 %14, 0
  br i1 %.not, label %39, label %15

15:                                               ; preds = %13
  call void @llvm.lifetime.start.p0(i64 80, ptr nonnull %6) #20
  %16 = add i32 %14, -1
  invoke void @_ZNK7zstring7extractEjj(ptr dead_on_unwind nonnull writable sret(%class.zstring) align 8 %6, ptr noundef nonnull align 8 dereferenceable(80) %5, i32 noundef 0, i32 noundef %16)
          to label %17 unwind label %34

17:                                               ; preds = %15
  %18 = invoke noundef ptr @_ZNK8seq_util3str9mk_stringERK7zstring(ptr noundef nonnull align 8 dereferenceable(20) %10, ptr noundef nonnull align 8 dereferenceable(80) %6)
          to label %19 unwind label %36

19:                                               ; preds = %17
  %20 = load ptr, ptr %1, align 8, !tbaa !63
  store ptr %18, ptr %0, align 8, !tbaa !67
  %21 = getelementptr inbounds nuw i8, ptr %0, i64 8
  store ptr %20, ptr %21, align 8, !tbaa !3
  %.not.i.i = icmp eq ptr %18, null
  br i1 %.not.i.i, label %_ZN7obj_refI4expr11ast_managerEC2EPS0_RS1_.exit, label %_ZN11ast_manager7inc_refEP3ast.exit.i.i

_ZN11ast_manager7inc_refEP3ast.exit.i.i:          ; preds = %19
  %22 = getelementptr inbounds nuw i8, ptr %18, i64 8
  %23 = load i32, ptr %22, align 4, !tbaa !59
  %24 = add i32 %23, 1
  store i32 %24, ptr %22, align 4, !tbaa !59
  br label %_ZN7obj_refI4expr11ast_managerEC2EPS0_RS1_.exit

_ZN7obj_refI4expr11ast_managerEC2EPS0_RS1_.exit:  ; preds = %_ZN11ast_manager7inc_refEP3ast.exit.i.i, %19
  %25 = load ptr, ptr %6, align 8, !tbaa !161
  %26 = getelementptr inbounds nuw i8, ptr %6, i64 16
  %.not.i.i.i.i = icmp eq ptr %25, %26
  %27 = icmp eq ptr %25, null
  %or.cond.i.i.i.i = or i1 %.not.i.i.i.i, %27
  br i1 %or.cond.i.i.i.i, label %_ZN7zstringD2Ev.exit, label %28

28:                                               ; preds = %_ZN7obj_refI4expr11ast_managerEC2EPS0_RS1_.exit
  invoke void @_ZN6memory10deallocateEPv(ptr noundef nonnull %25)
          to label %_ZN7zstringD2Ev.exit unwind label %29

29:                                               ; preds = %28
  %30 = landingpad { ptr, i32 }
          catch ptr null
  %31 = extractvalue { ptr, i32 } %30, 0
  call void @__clang_call_terminate(ptr %31) #21
  unreachable

_ZN7zstringD2Ev.exit:                             ; preds = %_ZN7obj_refI4expr11ast_managerEC2EPS0_RS1_.exit, %28
  call void @llvm.lifetime.end.p0(i64 80, ptr nonnull %6) #20
  br label %54

32:                                               ; preds = %.noexc, %39, %3
  %33 = landingpad { ptr, i32 }
          cleanup
  br label %.body

34:                                               ; preds = %15
  %35 = landingpad { ptr, i32 }
          cleanup
  br label %38

36:                                               ; preds = %17
  %37 = landingpad { ptr, i32 }
          cleanup
  call void @_ZN7zstringD2Ev(ptr noundef nonnull align 8 dereferenceable(80) %6) #20
  br label %38

38:                                               ; preds = %36, %34
  %.pn = phi { ptr, i32 } [ %37, %36 ], [ %35, %34 ]
  call void @llvm.lifetime.end.p0(i64 80, ptr nonnull %6) #20
  br label %.body

39:                                               ; preds = %13, %12
  call void @llvm.experimental.noalias.scope.decl(metadata !202)
  call void @llvm.lifetime.start.p0(i64 32, ptr nonnull %4) #20, !noalias !202
  store ptr %2, ptr %4, align 16, !tbaa !56, !noalias !202
  %40 = getelementptr inbounds nuw i8, ptr %4, i64 8
  call void @llvm.memset.p0.i64(ptr noundef nonnull align 8 dereferenceable(24) %40, i8 0, i64 24, i1 false)
  %41 = invoke noundef ptr @_ZNK4expr8get_sortEv(ptr noundef nonnull align 4 dereferenceable(16) %2)
          to label %.noexc unwind label %32

.noexc:                                           ; preds = %39
  %42 = getelementptr inbounds nuw i8, ptr %1, i64 208
  %43 = getelementptr inbounds nuw i8, ptr %1, i64 16
  %44 = invoke noundef ptr @_ZN8seq_util9mk_skolemERK6symboljPKP4exprP4sort(ptr noundef nonnull align 8 dereferenceable(136) %43, ptr noundef nonnull align 8 dereferenceable(8) %42, i32 noundef 1, ptr noundef nonnull %4, ptr noundef %41)
          to label %.noexc8 unwind label %32

.noexc8:                                          ; preds = %.noexc
  %45 = load ptr, ptr %1, align 8, !tbaa !63, !noalias !202
  store ptr %44, ptr %0, align 8, !tbaa !67, !alias.scope !202
  %46 = getelementptr inbounds nuw i8, ptr %0, i64 8
  store ptr %45, ptr %46, align 8, !tbaa !3, !alias.scope !202
  %.not.i.i.i = icmp eq ptr %44, null
  br i1 %.not.i.i.i, label %_ZN7obj_refI4expr11ast_managerEC2EPS0_RS1_.exit.i, label %_ZN11ast_manager7inc_refEP3ast.exit.i.i.i

_ZN11ast_manager7inc_refEP3ast.exit.i.i.i:        ; preds = %.noexc8
  %47 = getelementptr inbounds nuw i8, ptr %44, i64 8
  %48 = load i32, ptr %47, align 4, !tbaa !59, !noalias !202
  %49 = add i32 %48, 1
  store i32 %49, ptr %47, align 4, !tbaa !59, !noalias !202
  br label %_ZN7obj_refI4expr11ast_managerEC2EPS0_RS1_.exit.i

_ZN7obj_refI4expr11ast_managerEC2EPS0_RS1_.exit.i: ; preds = %_ZN11ast_manager7inc_refEP3ast.exit.i.i.i, %.noexc8
  %50 = getelementptr inbounds nuw i8, ptr %1, i64 8
  %51 = load ptr, ptr %50, align 8, !tbaa !69, !noalias !202
  invoke void @_ZN11th_rewriterclER7obj_refI4expr11ast_managerE(ptr noundef nonnull align 8 dereferenceable(16) %51, ptr noundef nonnull align 8 dereferenceable(16) %0)
          to label %_ZN3seq6skolem2mkERK6symbolP4exprS5_S5_S5_P4sortb.exit unwind label %52

52:                                               ; preds = %_ZN7obj_refI4expr11ast_managerEC2EPS0_RS1_.exit.i
  %53 = landingpad { ptr, i32 }
          cleanup
  call void @_ZN7obj_refI4expr11ast_managerED2Ev(ptr noundef nonnull align 8 dereferenceable(16) %0) #20
  call void @llvm.lifetime.end.p0(i64 32, ptr nonnull %4) #20, !noalias !202
  br label %.body

_ZN3seq6skolem2mkERK6symbolP4exprS5_S5_S5_P4sortb.exit: ; preds = %_ZN7obj_refI4expr11ast_managerEC2EPS0_RS1_.exit.i
  call void @llvm.lifetime.end.p0(i64 32, ptr nonnull %4) #20, !noalias !202
  br label %54

54:                                               ; preds = %_ZN3seq6skolem2mkERK6symbolP4exprS5_S5_S5_P4sortb.exit, %_ZN7zstringD2Ev.exit
  %55 = load ptr, ptr %5, align 8, !tbaa !161
  %.not.i.i.i.i9 = icmp eq ptr %55, %7
  %56 = icmp eq ptr %55, null
  %or.cond.i.i.i.i10 = or i1 %.not.i.i.i.i9, %56
  br i1 %or.cond.i.i.i.i10, label %_ZN7zstringD2Ev.exit11, label %57

57:                                               ; preds = %54
  invoke void @_ZN6memory10deallocateEPv(ptr noundef nonnull %55)
          to label %_ZN7zstringD2Ev.exit11 unwind label %58

58:                                               ; preds = %57
  %59 = landingpad { ptr, i32 }
          catch ptr null
  %60 = extractvalue { ptr, i32 } %59, 0
  call void @__clang_call_terminate(ptr %60) #21
  unreachable

_ZN7zstringD2Ev.exit11:                           ; preds = %54, %57
  call void @llvm.lifetime.end.p0(i64 80, ptr nonnull %5) #20
  ret void

.body:                                            ; preds = %32, %52, %38
  %.pn.pn = phi { ptr, i32 } [ %.pn, %38 ], [ %33, %32 ], [ %53, %52 ]
  call void @_ZN7zstringD2Ev(ptr noundef nonnull align 8 dereferenceable(80) %5) #20
  call void @llvm.lifetime.end.p0(i64 80, ptr nonnull %5) #20
  resume { ptr, i32 } %.pn.pn
}